target datalayout = "e-m:e-p270:32:32-p271:32:32-p272:64:64-i64:64-i128:128-f80:128-n8:16:32:64-S128"
target triple = "x86_64-pc-linux-gnu"

%struct._typeobject = type { %struct.PyVarObject, ptr, i64, i64, ptr, i64, ptr, ptr, ptr, ptr, ptr, ptr, ptr, ptr, ptr, ptr, ptr, ptr, ptr, i64, ptr, ptr, ptr, ptr, i64, ptr, ptr, ptr, ptr, ptr, ptr, ptr, ptr, ptr, i64, ptr, ptr, ptr, ptr, ptr, ptr, ptr, ptr, ptr, ptr, ptr, i32, ptr, ptr }
%struct.PyVarObject = type { %struct._object, i64 }
%struct._object = type { i64, ptr }

; Function Attrs: mustprogress nounwind uwtable
define internal noundef ptr @_ZN8nanobind6detailL11nb_dict_ptrEP7_object(ptr noundef %0) #6 {
  %2 = alloca ptr, align 8
  %3 = alloca ptr, align 8
  %4 = alloca i64, align 8
  store ptr %0, ptr %2, align 8
  call void @llvm.lifetime.start.p0(i64 8, ptr %3) #20
  %5 = load ptr, ptr %2, align 8
  %6 = getelementptr inbounds nuw %struct._object, ptr %5, i32 0, i32 1
  %7 = load ptr, ptr %6, align 8
  store ptr %7, ptr %3, align 8
  call void @llvm.lifetime.start.p0(i64 8, ptr %4) #20
  %8 = load ptr, ptr %3, align 8
  %9 = getelementptr inbounds nuw %struct._typeobject, ptr %8, i32 0, i32 34
  %10 = load i64, ptr %9, align 8
  store i64 %10, ptr %4, align 8
  %11 = load i64, ptr %4, align 8
  %12 = icmp ne i64 %11, 0
  br i1 %12, label %13, label %17

13:                                               ; preds = %1
  %14 = load ptr, ptr %2, align 8
  %15 = load i64, ptr %4, align 8
  %16 = getelementptr inbounds i8, ptr %14, i64 %15
  br label %18

17:                                               ; preds = %1
  br label %18

18:                                               ; preds = %17, %13
  %19 = phi ptr [ %16, %13 ], [ null, %17 ]
  call void @llvm.lifetime.end.p0(i64 8, ptr %4) #20
  call void @llvm.lifetime.end.p0(i64 8, ptr %3) #20
  ret ptr %19
}

; Function Attrs: mustprogress uwtable
define internal noundef i32 @_ZN8nanobind6detailL13inst_traverseEP7_objectPFiS2_PvES3_(ptr noundef %0, ptr noundef %1, ptr noundef %2) #0 {
  %4 = alloca i32, align 4
  %5 = alloca ptr, align 8
  %6 = alloca ptr, align 8
  %7 = alloca ptr, align 8
  %8 = alloca ptr, align 8
  %9 = alloca i32, align 4
  %10 = alloca i32, align 4
  %11 = alloca i32, align 4
  store ptr %0, ptr %5, align 8
  store ptr %1, ptr %6, align 8
  store ptr %2, ptr %7, align 8
  call void @llvm.lifetime.start.p0(i64 8, ptr %8) #20
  %12 = load ptr, ptr %5, align 8
  %13 = call noundef ptr @_ZN8nanobind6detailL11nb_dict_ptrEP7_object(ptr noundef %12)
  store ptr %13, ptr %8, align 8
  %14 = load ptr, ptr %8, align 8
  %15 = icmp ne ptr %14, null
  br i1 %15, label %16, label %38

16:                                               ; preds = %3
  br label %17

17:                                               ; preds = %16
  %18 = load ptr, ptr %8, align 8
  %19 = load ptr, ptr %18, align 8
  %20 = icmp ne ptr %19, null
  br i1 %20, label %21, label %35

21:                                               ; preds = %17
  call void @llvm.lifetime.start.p0(i64 4, ptr %9) #20
  %22 = load ptr, ptr %6, align 8
  %23 = load ptr, ptr %8, align 8
  %24 = load ptr, ptr %23, align 8
  %25 = load ptr, ptr %7, align 8
  %26 = call noundef i32 %22(ptr noundef %24, ptr noundef %25)
  store i32 %26, ptr %9, align 4
  %27 = load i32, ptr %9, align 4
  %28 = icmp ne i32 %27, 0
  br i1 %28, label %29, label %31

29:                                               ; preds = %21
  %30 = load i32, ptr %9, align 4
  store i32 %30, ptr %4, align 4
  store i32 1, ptr %10, align 4
  br label %32

31:                                               ; preds = %21
  store i32 0, ptr %10, align 4
  br label %32

32:                                               ; preds = %31, %29
  call void @llvm.lifetime.end.p0(i64 4, ptr %9) #20
  %33 = load i32, ptr %10, align 4
  switch i32 %33, label %62 [
    i32 0, label %34
  ]

34:                                               ; preds = %32
  br label %35

35:                                               ; preds = %34, %17
  br label %36

36:                                               ; preds = %35
  br label %37

37:                                               ; preds = %36
  br label %38

38:                                               ; preds = %37, %3
  br label %39

39:                                               ; preds = %38
  %40 = load ptr, ptr %5, align 8
  %41 = getelementptr inbounds nuw %struct._object, ptr %40, i32 0, i32 1
  %42 = load ptr, ptr %41, align 8
  %43 = icmp ne ptr %42, null
  br i1 %43, label %44, label %59

44:                                               ; preds = %39
  call void @llvm.lifetime.start.p0(i64 4, ptr %11) #20
  %45 = load ptr, ptr %6, align 8
  %46 = load ptr, ptr %5, align 8
  %47 = getelementptr inbounds nuw %struct._object, ptr %46, i32 0, i32 1
  %48 = load ptr, ptr %47, align 8
  %49 = load ptr, ptr %7, align 8
  %50 = call noundef i32 %45(ptr noundef %48, ptr noundef %49)
  store i32 %50, ptr %11, align 4
  %51 = load i32, ptr %11, align 4
  %52 = icmp ne i32 %51, 0
  br i1 %52, label %53, label %55

53:                                               ; preds = %44
  %54 = load i32, ptr %11, align 4
  store i32 %54, ptr %4, align 4
  store i32 1, ptr %10, align 4
  br label %56

55:                                               ; preds = %44
  store i32 0, ptr %10, align 4
  br label %56

56:                                               ; preds = %55, %53
  call void @llvm.lifetime.end.p0(i64 4, ptr %11) #20
  %57 = load i32, ptr %10, align 4
  switch i32 %57, label %62 [
    i32 0, label %58
  ]

58:                                               ; preds = %56
  br label %59

59:                                               ; preds = %58, %39
  br label %60

60:                                               ; preds = %59
  br label %61

61:                                               ; preds = %60
  store i32 0, ptr %4, align 4
  store i32 1, ptr %10, align 4
  br label %62

62:                                               ; preds = %61, %56, %32
  call void @llvm.lifetime.end.p0(i64 8, ptr %8) #20
  %63 = load i32, ptr %4, align 4
  ret i32 %63
}