; Function Attrs: mustprogress uwtable
define internal noundef i32 @_ZN8nanobind6detailL13inst_traverseEP7_objectPFiS2_PvES3_(ptr noundef readonly %0, ptr noundef readonly captures(none) %1, ptr noundef %2) #0 {
  %4 = getelementptr inbounds nuw i8, ptr %0, i64 8
  %5 = load ptr, ptr %4, align 8
  %6 = getelementptr inbounds nuw i8, ptr %5, i64 288
  %7 = load i64, ptr %6, align 8
  %.not.i = icmp eq i64 %7, 0
  %.not26 = icmp eq ptr %0, null
  %.not = or i1 %.not26, %.not.i
  br i1 %.not, label %.thread, label %8

8:                                                ; preds = %3
  %9 = getelementptr inbounds i8, ptr %0, i64 %7
  %10 = load ptr, ptr %9, align 8
  %.not22 = icmp eq ptr %10, null
  br i1 %.not22, label %.thread, label %11

11:                                               ; preds = %8
  %12 = tail call noundef i32 %1(ptr noundef nonnull %10, ptr noundef %2)
  %.not23 = icmp eq i32 %12, 0
  br i1 %.not23, label %13, label %17

13:                                               ; preds = %11
  %.pre = load ptr, ptr %4, align 8
  %.not24 = icmp eq ptr %.pre, null
  br i1 %.not24, label %16, label %.thread

.thread:                                          ; preds = %8, %3, %13
  %14 = phi ptr [ %.pre, %13 ], [ %5, %3 ], [ %5, %8 ]
  %15 = tail call noundef i32 %1(ptr noundef nonnull %14, ptr noundef %2)
  %.not25 = icmp eq i32 %15, 0
  br i1 %.not25, label %16, label %17

16:                                               ; preds = %.thread, %13
  br label %17

17:                                               ; preds = %11, %.thread, %16
  %.1 = phi i32 [ 0, %16 ], [ %15, %.thread ], [ %12, %11 ]
  ret i32 %.1
}